target datalayout = "e-m:e-p270:32:32-p271:32:32-p272:64:64-i64:64-i128:128-f80:128-n8:16:32:64-S128"
target triple = "x86_64-unknown-linux-gnu"

%"class.rocksdb::BuiltinFilterBitsBuilder" = type { %"class.rocksdb::FilterBitsBuilder" }
%"class.rocksdb::FilterBitsBuilder" = type { ptr }
%"class.rocksdb::(anonymous namespace)::LegacyBloomBitsBuilder" = type { %"class.rocksdb::BuiltinFilterBitsBuilder", i32, i32, %"class.std::vector.37", ptr }
%"class.std::vector.37" = type { %"struct.std::_Vector_base.38" }
%"struct.std::_Vector_base.38" = type { %"struct.std::_Vector_base<unsigned int, std::allocator<unsigned int>>::_Vector_impl" }
%"struct.std::_Vector_base<unsigned int, std::allocator<unsigned int>>::_Vector_impl" = type { %"struct.std::_Vector_base<unsigned int, std::allocator<unsigned int>>::_Vector_impl_data" }
%"struct.std::_Vector_base<unsigned int, std::allocator<unsigned int>>::_Vector_impl_data" = type { ptr, ptr, ptr }

; Function Attrs: mustprogress nounwind uwtable
define linkonce_odr noundef double @_ZSt3powIdiEN9__gnu_cxx9__promoteIDTplcvNS1_IT_Xsr3std12__is_integerIS2_EE7__valueEE6__typeELi0EcvNS1_IT0_Xsr3std12__is_integerIS5_EE7__valueEE6__typeELi0EEXsr3std12__is_integerIS8_EE7__valueEE6__typeES2_S5_(double noundef %__x, i32 noundef %__y) #1 comdat {
entry:
  %__x.addr = alloca double, align 8
  %__y.addr = alloca i32, align 4
  store double %__x, ptr %__x.addr, align 8
  store i32 %__y, ptr %__y.addr, align 4
  %0 = load double, ptr %__x.addr, align 8
  %1 = load i32, ptr %__y.addr, align 4
  %conv = sitofp i32 %1 to double
  %call = call double @pow(double noundef %0, double noundef %conv) #3
  ret double %call
}

; Function Attrs: mustprogress uwtable
define linkonce_odr noundef double @_ZN7rocksdb9BloomMath14StandardFpRateEdi(double noundef %bits_per_key, i32 noundef %num_probes) #0 comdat align 2 {
entry:
  %bits_per_key.addr = alloca double, align 8
  %num_probes.addr = alloca i32, align 4
  store double %bits_per_key, ptr %bits_per_key.addr, align 8
  store i32 %num_probes, ptr %num_probes.addr, align 4
  %0 = load i32, ptr %num_probes.addr, align 4
  %sub = sub nsw i32 0, %0
  %conv = sitofp i32 %sub to double
  %1 = load double, ptr %bits_per_key.addr, align 8
  %div = fdiv double %conv, %1
  %call = call double @exp(double noundef %div) #3
  %sub1 = fsub double 1.000000e+00, %call
  %2 = load i32, ptr %num_probes.addr, align 4
  %call2 = call noundef double @_ZSt3powIdiEN9__gnu_cxx9__promoteIDTplcvNS1_IT_Xsr3std12__is_integerIS2_EE7__valueEE6__typeELi0EcvNS1_IT0_Xsr3std12__is_integerIS5_EE7__valueEE6__typeELi0EEXsr3std12__is_integerIS8_EE7__valueEE6__typeES2_S5_(double noundef %sub1, i32 noundef %2)
  ret double %call2
}

; Function Attrs: mustprogress nounwind uwtable
define linkonce_odr noundef double @_ZN7rocksdb9BloomMath25IndependentProbabilitySumEdd(double noundef %rate1, double noundef %rate2) #1 comdat align 2 {
entry:
  %rate1.addr = alloca double, align 8
  %rate2.addr = alloca double, align 8
  store double %rate1, ptr %rate1.addr, align 8
  store double %rate2, ptr %rate2.addr, align 8
  %0 = load double, ptr %rate1.addr, align 8
  %1 = load double, ptr %rate2.addr, align 8
  %add = fadd double %0, %1
  %2 = load double, ptr %rate1.addr, align 8
  %3 = load double, ptr %rate2.addr, align 8
  %neg = fneg double %2
  %4 = call double @llvm.fmuladd.f64(double %neg, double %3, double %add)
  ret double %4
}

; Function Attrs: mustprogress nounwind uwtable
define linkonce_odr noundef double @_ZN7rocksdb9BloomMath17FingerprintFpRateEmi(i64 noundef %num_keys, i32 noundef %fingerprint_bits) #1 comdat align 2 {
entry:
  %retval = alloca double, align 8
  %num_keys.addr = alloca i64, align 8
  %fingerprint_bits.addr = alloca i32, align 4
  %inv_fingerprint_space = alloca double, align 8
  %base_estimate = alloca double, align 8
  store i64 %num_keys, ptr %num_keys.addr, align 8
  store i32 %fingerprint_bits, ptr %fingerprint_bits.addr, align 4
  %0 = load i32, ptr %fingerprint_bits.addr, align 4
  %call = call noundef double @_ZSt3powIdiEN9__gnu_cxx9__promoteIDTplcvNS1_IT_Xsr3std12__is_integerIS2_EE7__valueEE6__typeELi0EcvNS1_IT0_Xsr3std12__is_integerIS5_EE7__valueEE6__typeELi0EEXsr3std12__is_integerIS8_EE7__valueEE6__typeES2_S5_(double noundef 5.000000e-01, i32 noundef %0)
  store double %call, ptr %inv_fingerprint_space, align 8
  %1 = load i64, ptr %num_keys.addr, align 8
  %conv = uitofp i64 %1 to double
  %2 = load double, ptr %inv_fingerprint_space, align 8
  %mul = fmul double %conv, %2
  store double %mul, ptr %base_estimate, align 8
  %3 = load double, ptr %base_estimate, align 8
  %cmp = fcmp ogt double %3, 1.000000e-04
  br i1 %cmp, label %if.then, label %if.else

if.then:                                          ; preds = %entry
  %4 = load double, ptr %base_estimate, align 8
  %fneg = fneg double %4
  %call1 = call double @exp(double noundef %fneg) #3
  %sub = fsub double 1.000000e+00, %call1
  store double %sub, ptr %retval, align 8
  br label %return

if.else:                                          ; preds = %entry
  %5 = load double, ptr %base_estimate, align 8
  %6 = load double, ptr %base_estimate, align 8
  %7 = load double, ptr %base_estimate, align 8
  %mul2 = fmul double %6, %7
  %neg = fneg double %mul2
  %8 = call double @llvm.fmuladd.f64(double %neg, double 5.000000e-01, double %5)
  store double %8, ptr %retval, align 8
  br label %return

return:                                           ; preds = %if.else, %if.then
  %9 = load double, ptr %retval, align 8
  ret double %9
}

; Function Attrs: mustprogress uwtable
define linkonce_odr noundef double @_ZN7rocksdb9BloomMath16CacheLocalFpRateEdii(double noundef %bits_per_key, i32 noundef %num_probes, i32 noundef %cache_line_bits) #0 comdat align 2 {
entry:
  %retval = alloca double, align 8
  %bits_per_key.addr = alloca double, align 8
  %num_probes.addr = alloca i32, align 4
  %cache_line_bits.addr = alloca i32, align 4
  %keys_per_cache_line = alloca double, align 8
  %keys_stddev = alloca double, align 8
  %crowded_fp = alloca double, align 8
  %uncrowded_fp = alloca double, align 8
  store double %bits_per_key, ptr %bits_per_key.addr, align 8
  store i32 %num_probes, ptr %num_probes.addr, align 4
  store i32 %cache_line_bits, ptr %cache_line_bits.addr, align 4
  %0 = load double, ptr %bits_per_key.addr, align 8
  %cmp = fcmp ole double %0, 0.000000e+00
  br i1 %cmp, label %if.then, label %if.end

if.then:                                          ; preds = %entry
  store double 1.000000e+00, ptr %retval, align 8
  br label %return

if.end:                                           ; preds = %entry
  %1 = load i32, ptr %cache_line_bits.addr, align 4
  %conv = sitofp i32 %1 to double
  %2 = load double, ptr %bits_per_key.addr, align 8
  %div = fdiv double %conv, %2
  store double %div, ptr %keys_per_cache_line, align 8
  %3 = load double, ptr %keys_per_cache_line, align 8
  %call = call double @sqrt(double noundef %3) #3
  store double %call, ptr %keys_stddev, align 8
  %4 = load i32, ptr %cache_line_bits.addr, align 4
  %conv1 = sitofp i32 %4 to double
  %5 = load double, ptr %keys_per_cache_line, align 8
  %6 = load double, ptr %keys_stddev, align 8
  %add = fadd double %5, %6
  %div2 = fdiv double %conv1, %add
  %7 = load i32, ptr %num_probes.addr, align 4
  %call3 = call noundef double @_ZN7rocksdb9BloomMath14StandardFpRateEdi(double noundef %div2, i32 noundef %7)
  store double %call3, ptr %crowded_fp, align 8
  %8 = load i32, ptr %cache_line_bits.addr, align 4
  %conv4 = sitofp i32 %8 to double
  %9 = load double, ptr %keys_per_cache_line, align 8
  %10 = load double, ptr %keys_stddev, align 8
  %sub = fsub double %9, %10
  %div5 = fdiv double %conv4, %sub
  %11 = load i32, ptr %num_probes.addr, align 4
  %call6 = call noundef double @_ZN7rocksdb9BloomMath14StandardFpRateEdi(double noundef %div5, i32 noundef %11)
  store double %call6, ptr %uncrowded_fp, align 8
  %12 = load double, ptr %crowded_fp, align 8
  %13 = load double, ptr %uncrowded_fp, align 8
  %add7 = fadd double %12, %13
  %div8 = fdiv double %add7, 2.000000e+00
  store double %div8, ptr %retval, align 8
  br label %return

return:                                           ; preds = %if.end, %if.then
  %14 = load double, ptr %retval, align 8
  ret double %14
}

; Function Attrs: mustprogress uwtable
define linkonce_odr noundef double @_ZN7rocksdb23LegacyLocalityBloomImplILb0EE15EstimatedFpRateEmmi(i64 noundef %keys, i64 noundef %bytes, i32 noundef %num_probes) #0 comdat align 2 {
entry:
  %keys.addr = alloca i64, align 8
  %bytes.addr = alloca i64, align 8
  %num_probes.addr = alloca i32, align 4
  %bits_per_key = alloca double, align 8
  %filter_rate = alloca double, align 8
  %fingerprint_rate = alloca double, align 8
  store i64 %keys, ptr %keys.addr, align 8
  store i64 %bytes, ptr %bytes.addr, align 8
  store i32 %num_probes, ptr %num_probes.addr, align 4
  %0 = load i64, ptr %bytes.addr, align 8
  %conv = uitofp i64 %0 to double
  %mul = fmul double 8.000000e+00, %conv
  %1 = load i64, ptr %keys.addr, align 8
  %conv1 = uitofp i64 %1 to double
  %div = fdiv double %mul, %conv1
  store double %div, ptr %bits_per_key, align 8
  %2 = load double, ptr %bits_per_key, align 8
  %3 = load i32, ptr %num_probes.addr, align 4
  %call = call noundef double @_ZN7rocksdb9BloomMath16CacheLocalFpRateEdii(double noundef %2, i32 noundef %3, i32 noundef 512)
  store double %call, ptr %filter_rate, align 8
  %4 = load double, ptr %bits_per_key, align 8
  %5 = call double @llvm.fmuladd.f64(double %4, double 7.500000e-01, double 2.200000e+01)
  %div3 = fdiv double 1.000000e-01, %5
  %6 = load double, ptr %filter_rate, align 8
  %add = fadd double %6, %div3
  store double %add, ptr %filter_rate, align 8
  %7 = load i64, ptr %keys.addr, align 8
  %call4 = call noundef double @_ZN7rocksdb9BloomMath17FingerprintFpRateEmi(i64 noundef %7, i32 noundef 32)
  store double %call4, ptr %fingerprint_rate, align 8
  %8 = load double, ptr %filter_rate, align 8
  %9 = load double, ptr %fingerprint_rate, align 8
  %call5 = call noundef double @_ZN7rocksdb9BloomMath25IndependentProbabilitySumEdd(double noundef %8, double noundef %9)
  ret double %call5
}

; Function Attrs: mustprogress uwtable
define internal noundef double @_ZN7rocksdb12_GLOBAL__N_122LegacyBloomBitsBuilder15EstimatedFpRateEmm(ptr noundef nonnull align 8 dereferenceable(48) %this, i64 noundef %keys, i64 noundef %bytes) unnamed_addr #0 align 2 {
entry:
  %this.addr = alloca ptr, align 8
  %keys.addr = alloca i64, align 8
  %bytes.addr = alloca i64, align 8
  store ptr %this, ptr %this.addr, align 8
  store i64 %keys, ptr %keys.addr, align 8
  store i64 %bytes, ptr %bytes.addr, align 8
  %this1 = load ptr, ptr %this.addr, align 8
  %0 = load i64, ptr %keys.addr, align 8
  %1 = load i64, ptr %bytes.addr, align 8
  %sub = sub i64 %1, 5
  %num_probes_ = getelementptr inbounds %"class.rocksdb::(anonymous namespace)::LegacyBloomBitsBuilder", ptr %this1, i32 0, i32 2
  %2 = load i32, ptr %num_probes_, align 4
  %call = call noundef double @_ZN7rocksdb23LegacyLocalityBloomImplILb0EE15EstimatedFpRateEmmi(i64 noundef %0, i64 noundef %sub, i32 noundef %2)
  ret double %call
}