; Function Attrs: mustprogress nofree nounwind willreturn memory(write, argmem: readwrite) uwtable
define internal noundef double @_ZN7rocksdb12_GLOBAL__N_122LegacyBloomBitsBuilder15EstimatedFpRateEmm(ptr nocapture noundef nonnull readonly align 8 dereferenceable(48) %this, i64 noundef %keys, i64 noundef %bytes) unnamed_addr #4 align 2 {
entry:
  %sub = add i64 %bytes, -5
  %conv.i = uitofp i64 %sub to double
  %mul.i = fmul double %conv.i, 8.000000e+00
  %conv1.i = uitofp i64 %keys to double
  %div.i = fdiv double %mul.i, %conv1.i
  %cmp.i.i = fcmp ugt double %div.i, 0.000000e+00
  br i1 %cmp.i.i, label %if.end.i.i, label %cdce.end.i

if.end.i.i:                                       ; preds = %entry
  %num_probes_ = getelementptr inbounds i8, ptr %this, i64 12
  %0 = load i32, ptr %num_probes_, align 4
  %div.i.i = fdiv double 5.120000e+02, %div.i
  %sqrt.i = tail call double @llvm.sqrt.f64(double %div.i.i)
  %add.i.i = fadd double %div.i.i, %sqrt.i
  %div2.i.i = fdiv double 5.120000e+02, %add.i.i
  %sub.i.i.i = sub nsw i32 0, %0
  %conv.i.i.i = sitofp i32 %sub.i.i.i to double
  %div.i.i.i = fdiv double %conv.i.i.i, %div2.i.i
  %call.i.i.i = tail call double @exp(double noundef %div.i.i.i) #32
  %sub1.i.i.i = fsub double 1.000000e+00, %call.i.i.i
  %conv.i.i.i.i = sitofp i32 %0 to double
  %call.i.i.i.i = tail call noundef double @pow(double noundef %sub1.i.i.i, double noundef %conv.i.i.i.i) #32
  %sub.i.i = fsub double %div.i.i, %sqrt.i
  %div5.i.i = fdiv double 5.120000e+02, %sub.i.i
  %div.i10.i.i = fdiv double %conv.i.i.i, %div5.i.i
  %call.i11.i.i = tail call double @exp(double noundef %div.i10.i.i) #32
  %sub1.i12.i.i = fsub double 1.000000e+00, %call.i11.i.i
  %call.i.i14.i.i = tail call noundef double @pow(double noundef %sub1.i12.i.i, double noundef %conv.i.i.i.i) #32
  %add7.i.i = fadd double %call.i.i.i.i, %call.i.i14.i.i
  %div8.i.i = fmul double %add7.i.i, 5.000000e-01
  br label %cdce.end.i

cdce.end.i:                                       ; preds = %if.end.i.i, %entry
  %retval.0.i.i = phi double [ %div8.i.i, %if.end.i.i ], [ 1.000000e+00, %entry ]
  %mul.i.i = fmul double %conv1.i, 0x3DF0000000000000
  %cmp.i4.i = fcmp ogt double %mul.i.i, 1.000000e-04
  %fneg.i.i = fneg double %mul.i.i
  br i1 %cmp.i4.i, label %if.then.i.i, label %if.else.i.i

if.then.i.i:                                      ; preds = %cdce.end.i
  %call1.i.i = tail call double @exp(double noundef %fneg.i.i) #32
  %sub.i6.i = fsub double 1.000000e+00, %call1.i.i
  br label %_ZN7rocksdb23LegacyLocalityBloomImplILb0EE15EstimatedFpRateEmmi.exit

if.else.i.i:                                      ; preds = %cdce.end.i
  %neg.i.i = fmul double %mul.i.i, %fneg.i.i
  %1 = tail call double @llvm.fmuladd.f64(double %neg.i.i, double 5.000000e-01, double %mul.i.i)
  br label %_ZN7rocksdb23LegacyLocalityBloomImplILb0EE15EstimatedFpRateEmmi.exit

_ZN7rocksdb23LegacyLocalityBloomImplILb0EE15EstimatedFpRateEmmi.exit: ; preds = %if.then.i.i, %if.else.i.i
  %retval.0.i5.i = phi double [ %sub.i6.i, %if.then.i.i ], [ %1, %if.else.i.i ]
  %2 = tail call double @llvm.fmuladd.f64(double %div.i, double 7.500000e-01, double 2.200000e+01)
  %div3.i = fdiv double 1.000000e-01, %2
  %add.i = fadd double %div3.i, %retval.0.i.i
  %add.i7.i = fadd double %add.i, %retval.0.i5.i
  %neg.i8.i = fneg double %add.i
  %3 = tail call noundef double @llvm.fmuladd.f64(double %neg.i8.i, double %retval.0.i5.i, double %add.i7.i)
  ret double %3
}